target datalayout = "e-m:e-p270:32:32-p271:32:32-p272:64:64-i64:64-i128:128-f80:128-n8:16:32:64-S128"
target triple = "x86_64-pc-linux-gnu"

%"class.toku::treenode" = type <{ %struct.toku_mutex_t, %"class.toku::keyrange", i64, i8, [7 x i8], ptr, %"struct.toku::treenode::child_ptr", %"struct.toku::treenode::child_ptr", ptr, i8, i8, [6 x i8] }>
%struct.toku_mutex_t = type { %union.pthread_mutex_t, ptr }
%union.pthread_mutex_t = type { %struct.__pthread_mutex_s }
%struct.__pthread_mutex_s = type { i32, i32, i32, i32, i32, i16, i16, %struct.__pthread_internal_list }
%struct.__pthread_internal_list = type { ptr, ptr }
%"class.toku::keyrange" = type <{ %struct.__toku_dbt, %struct.__toku_dbt, ptr, ptr, i8, [7 x i8] }>
%struct.__toku_dbt = type { ptr, i64, i64, i32 }
%"struct.toku::treenode::child_ptr" = type { ptr, i32 }

; Function Attrs: mustprogress nounwind uwtable
define noundef zeroext i1 @_ZNK4toku8treenode15left_imbalancedEi(ptr noundef nonnull align 8 dereferenceable(202) %0, i32 noundef %1) #5 align 2 {
  %3 = alloca ptr, align 8
  %4 = alloca i32, align 4
  %5 = alloca i32, align 4
  %6 = alloca i32, align 4
  store ptr %0, ptr %3, align 8, !tbaa !4
  store i32 %1, ptr %4, align 4, !tbaa !13
  %7 = load ptr, ptr %3, align 8
  call void @llvm.lifetime.start.p0(i64 4, ptr %5) #16
  %8 = getelementptr inbounds nuw %"class.toku::treenode", ptr %7, i32 0, i32 6
  %9 = getelementptr inbounds nuw %"struct.toku::treenode::child_ptr", ptr %8, i32 0, i32 1
  %10 = load i32, ptr %9, align 8, !tbaa !54
  store i32 %10, ptr %5, align 4, !tbaa !13
  call void @llvm.lifetime.start.p0(i64 4, ptr %6) #16
  %11 = getelementptr inbounds nuw %"class.toku::treenode", ptr %7, i32 0, i32 7
  %12 = getelementptr inbounds nuw %"struct.toku::treenode::child_ptr", ptr %11, i32 0, i32 1
  %13 = load i32, ptr %12, align 8, !tbaa !55
  store i32 %13, ptr %6, align 4, !tbaa !13
  %14 = getelementptr inbounds nuw %"class.toku::treenode", ptr %7, i32 0, i32 6
  %15 = getelementptr inbounds nuw %"struct.toku::treenode::child_ptr", ptr %14, i32 0, i32 0
  %16 = load ptr, ptr %15, align 8, !tbaa !61
  %17 = icmp ne ptr %16, null
  br i1 %17, label %18, label %24

18:                                               ; preds = %2
  %19 = load i32, ptr %5, align 4, !tbaa !13
  %20 = load i32, ptr %4, align 4, !tbaa !13
  %21 = load i32, ptr %6, align 4, !tbaa !13
  %22 = add i32 %20, %21
  %23 = icmp ugt i32 %19, %22
  br label %24

24:                                               ; preds = %18, %2
  %25 = phi i1 [ false, %2 ], [ %23, %18 ]
  call void @llvm.lifetime.end.p0(i64 4, ptr %6) #16
  call void @llvm.lifetime.end.p0(i64 4, ptr %5) #16
  ret i1 %25
}