; Function Attrs: mustprogress nofree norecurse nosync nounwind willreturn memory(argmem: read) uwtable
define noundef zeroext i1 @_ZNK4toku8treenode15left_imbalancedEi(ptr noundef nonnull readonly align 8 captures(none) dereferenceable(202) %0, i32 noundef %1) local_unnamed_addr #4 align 2 {
  %3 = getelementptr inbounds nuw i8, ptr %0, i64 160
  %4 = load ptr, ptr %3, align 8, !tbaa !53
  %.not = icmp ne ptr %4, null
  %5 = getelementptr inbounds nuw i8, ptr %0, i64 184
  %6 = load i32, ptr %5, align 8
  %7 = getelementptr inbounds nuw i8, ptr %0, i64 168
  %8 = load i32, ptr %7, align 8
  %9 = add i32 %6, %1
  %10 = icmp ugt i32 %8, %9
  %11 = select i1 %.not, i1 %10, i1 false
  ret i1 %11
}